; Function Attrs: nounwind sspstrong uwtable
define internal void @cloop_close(ptr noundef readonly captures(none) %bs) #0 {
entry:
  %opaque = getelementptr inbounds nuw i8, ptr %bs, i64 24
  %0 = load ptr, ptr %opaque, align 8
  %offsets = getelementptr inbounds nuw i8, ptr %0, i64 56
  %1 = load ptr, ptr %offsets, align 8
  tail call void @g_free(ptr noundef %1) #10
  %compressed_block = getelementptr inbounds nuw i8, ptr %0, i64 72
  %2 = load ptr, ptr %compressed_block, align 8
  tail call void @g_free(ptr noundef %2) #10
  %uncompressed_block = getelementptr inbounds nuw i8, ptr %0, i64 80
  %3 = load ptr, ptr %uncompressed_block, align 8
  tail call void @g_free(ptr noundef %3) #10
  %zstream = getelementptr inbounds nuw i8, ptr %0, i64 88
  %call = tail call i32 @inflateEnd(ptr noundef nonnull %zstream) #10
  ret void
}